; Function Attrs: nounwind uwtable
define i64 @zend_ini_long(ptr noundef %0, i64 noundef %1, i32 noundef %2) local_unnamed_addr #0 {
  %4 = load ptr, ptr getelementptr inbounds (%struct._zend_executor_globals, ptr @executor_globals, i64 0, i32 46), align 8
  %5 = tail call ptr @zend_hash_str_find(ptr noundef %4, ptr noundef %0, i64 noundef %1) #20
  %.not = icmp eq ptr %5, null
  br i1 %.not, label %.thread, label %6

6:                                                ; preds = %3
  %7 = load ptr, ptr %5, align 8, !nonnull !5, !noundef !5
  %.not21 = icmp eq i32 %2, 0
  br i1 %.not21, label %14, label %8

8:                                                ; preds = %6
  %9 = getelementptr inbounds i8, ptr %7, i64 70
  %10 = load i8, ptr %9, align 2
  %.not22 = icmp eq i8 %10, 0
  br i1 %.not22, label %14, label %11

11:                                               ; preds = %8
  %12 = getelementptr inbounds i8, ptr %7, i64 48
  %13 = load ptr, ptr %12, align 8
  %.not24 = icmp eq ptr %13, null
  br i1 %.not24, label %.thread, label %.thread.sink.split

14:                                               ; preds = %8, %6
  %15 = getelementptr inbounds i8, ptr %7, i64 40
  %16 = load ptr, ptr %15, align 8
  %.not23 = icmp eq ptr %16, null
  br i1 %.not23, label %.thread, label %.thread.sink.split

.thread.sink.split:                               ; preds = %14, %11
  %.sink27 = phi ptr [ %13, %11 ], [ %16, %14 ]
  %17 = getelementptr inbounds i8, ptr %.sink27, i64 24
  %18 = tail call i64 @strtoll(ptr nocapture noundef nonnull %17, ptr noundef null, i32 noundef 0) #20
  br label %.thread

.thread:                                          ; preds = %.thread.sink.split, %3, %14, %11
  %.016 = phi i64 [ 0, %11 ], [ 0, %14 ], [ 0, %3 ], [ %18, %.thread.sink.split ]
  ret i64 %.016
}